target datalayout = "e-m:e-p270:32:32-p271:32:32-p272:64:64-i64:64-i128:128-f80:128-n8:16:32:64-S128"
target triple = "x86_64-pc-linux-gnu"

%"class.llvm::Regex" = type <{ ptr, i32, [4 x i8] }>
%"class.llvm::StringRef" = type { ptr, i64 }
%"class.clang::tooling::IncludeCategoryManager" = type { %"struct.clang::tooling::IncludeStyle", i8, %"class.std::__cxx11::basic_string", %"class.llvm::SmallVector" }
%"struct.clang::tooling::IncludeStyle" = type <{ i32, [4 x i8], %"class.std::vector", %"class.std::__cxx11::basic_string", %"class.std::__cxx11::basic_string", i8, [7 x i8] }>
%"class.std::vector" = type { %"struct.std::_Vector_base" }
%"struct.std::_Vector_base" = type { %"struct.std::_Vector_base<clang::tooling::IncludeStyle::IncludeCategory, std::allocator<clang::tooling::IncludeStyle::IncludeCategory>>::_Vector_impl" }
%"struct.std::_Vector_base<clang::tooling::IncludeStyle::IncludeCategory, std::allocator<clang::tooling::IncludeStyle::IncludeCategory>>::_Vector_impl" = type { %"struct.std::_Vector_base<clang::tooling::IncludeStyle::IncludeCategory, std::allocator<clang::tooling::IncludeStyle::IncludeCategory>>::_Vector_impl_data" }
%"struct.std::_Vector_base<clang::tooling::IncludeStyle::IncludeCategory, std::allocator<clang::tooling::IncludeStyle::IncludeCategory>>::_Vector_impl_data" = type { ptr, ptr, ptr }
%"class.std::__cxx11::basic_string" = type { %"struct.std::__cxx11::basic_string<char>::_Alloc_hider", i64, %union.anon }
%"struct.std::__cxx11::basic_string<char>::_Alloc_hider" = type { ptr }
%union.anon = type { i64, [8 x i8] }
%"class.llvm::SmallVector" = type { %"class.llvm::SmallVectorImpl", %"struct.llvm::SmallVectorStorage" }
%"class.llvm::SmallVectorImpl" = type { %"class.llvm::SmallVectorTemplateBase" }
%"class.llvm::SmallVectorTemplateBase" = type { %"class.llvm::SmallVectorTemplateCommon" }
%"class.llvm::SmallVectorTemplateCommon" = type { %"class.llvm::SmallVectorBase" }
%"class.llvm::SmallVectorBase" = type { ptr, i32, i32 }
%"struct.llvm::SmallVectorStorage" = type { [64 x i8] }
%"struct.clang::tooling::IncludeStyle::IncludeCategory" = type <{ %"class.std::__cxx11::basic_string", i32, i32, i8, [7 x i8] }>

; Function Attrs: mustprogress nounwind uwtable
define linkonce_odr hidden noundef ptr @_ZNK4llvm25SmallVectorTemplateCommonINS_5RegexEvE5beginEv(ptr noundef nonnull align 8 dereferenceable(16) %0) #0 comdat align 2 {
  %2 = alloca ptr, align 8
  store ptr %0, ptr %2, align 8
  %3 = load ptr, ptr %2, align 8
  %4 = getelementptr inbounds nuw %"class.llvm::SmallVectorBase", ptr %3, i32 0, i32 0
  %5 = load ptr, ptr %4, align 8
  ret ptr %5
}

; Function Attrs: mustprogress nounwind uwtable
define linkonce_odr hidden noundef nonnull align 8 dereferenceable(41) ptr @_ZNKSt6vectorIN5clang7tooling12IncludeStyle15IncludeCategoryESaIS3_EEixEm(ptr noundef nonnull align 8 dereferenceable(24) %0, i64 noundef %1) #0 comdat align 2 {
  %3 = alloca ptr, align 8
  %4 = alloca i64, align 8
  store ptr %0, ptr %3, align 8
  store i64 %1, ptr %4, align 8
  %5 = load ptr, ptr %3, align 8
  %6 = getelementptr inbounds nuw %"struct.std::_Vector_base", ptr %5, i32 0, i32 0
  %7 = getelementptr inbounds nuw %"struct.std::_Vector_base<clang::tooling::IncludeStyle::IncludeCategory, std::allocator<clang::tooling::IncludeStyle::IncludeCategory>>::_Vector_impl_data", ptr %6, i32 0, i32 0
  %8 = load ptr, ptr %7, align 8
  %9 = load i64, ptr %4, align 8
  %10 = getelementptr inbounds %"struct.clang::tooling::IncludeStyle::IncludeCategory", ptr %8, i64 %9
  ret ptr %10
}

; Function Attrs: mustprogress nounwind uwtable
define linkonce_odr hidden noundef nonnull align 8 dereferenceable(12) ptr @_ZNK4llvm25SmallVectorTemplateCommonINS_5RegexEvEixEm(ptr noundef nonnull align 8 dereferenceable(16) %0, i64 noundef %1) #0 comdat align 2 {
  %3 = alloca ptr, align 8
  %4 = alloca i64, align 8
  store ptr %0, ptr %3, align 8
  store i64 %1, ptr %4, align 8
  %5 = load ptr, ptr %3, align 8
  %6 = call noundef ptr @_ZNK4llvm25SmallVectorTemplateCommonINS_5RegexEvE5beginEv(ptr noundef nonnull align 8 dereferenceable(16) %5)
  %7 = load i64, ptr %4, align 8
  %8 = getelementptr inbounds %"class.llvm::Regex", ptr %6, i64 %7
  ret ptr %8
}

; Function Attrs: mustprogress nounwind uwtable
define dso_local noundef i32 @_ZNK5clang7tooling22IncludeCategoryManager18getIncludePriorityEN4llvm9StringRefEb(ptr noundef nonnull align 8 dereferenceable(224) %0, ptr %1, i64 %2, i1 noundef zeroext %3) #0 align 2 {
  %5 = alloca %"class.llvm::StringRef", align 8
  %6 = alloca ptr, align 8
  %7 = alloca i8, align 1
  %8 = alloca i32, align 4
  %9 = alloca i32, align 4
  %10 = alloca i32, align 4
  %11 = alloca %"class.llvm::StringRef", align 8
  %12 = alloca %"class.llvm::StringRef", align 8
  %13 = getelementptr inbounds nuw { ptr, i64 }, ptr %5, i32 0, i32 0
  store ptr %1, ptr %13, align 8
  %14 = getelementptr inbounds nuw { ptr, i64 }, ptr %5, i32 0, i32 1
  store i64 %2, ptr %14, align 8
  store ptr %0, ptr %6, align 8
  %15 = zext i1 %3 to i8
  store i8 %15, ptr %7, align 1
  %16 = load ptr, ptr %6, align 8
  store i32 2147483647, ptr %8, align 4
  store i32 0, ptr %9, align 4
  %17 = getelementptr inbounds nuw %"class.clang::tooling::IncludeCategoryManager", ptr %16, i32 0, i32 3
  %18 = call noundef i64 @_ZNK4llvm15SmallVectorBaseIjE4sizeEv(ptr noundef nonnull align 8 dereferenceable(16) %17)
  %19 = trunc i64 %18 to i32
  store i32 %19, ptr %10, align 4
  br label %20

20:                                               ; preds = %43, %4
  %21 = load i32, ptr %9, align 4
  %22 = load i32, ptr %10, align 4
  %23 = icmp ne i32 %21, %22
  br i1 %23, label %24, label %46

24:                                               ; preds = %20
  %25 = getelementptr inbounds nuw %"class.clang::tooling::IncludeCategoryManager", ptr %16, i32 0, i32 3
  %26 = load i32, ptr %9, align 4
  %27 = zext i32 %26 to i64
  %28 = call noundef nonnull align 8 dereferenceable(12) ptr @_ZNK4llvm25SmallVectorTemplateCommonINS_5RegexEvEixEm(ptr noundef nonnull align 8 dereferenceable(16) %25, i64 noundef %27)
  call void @llvm.memcpy.p0.p0.i64(ptr align 8 %11, ptr align 8 %5, i64 16, i1 false)
  %29 = getelementptr inbounds nuw { ptr, i64 }, ptr %11, i32 0, i32 0
  %30 = load ptr, ptr %29, align 8
  %31 = getelementptr inbounds nuw { ptr, i64 }, ptr %11, i32 0, i32 1
  %32 = load i64, ptr %31, align 8
  %33 = call noundef zeroext i1 @_ZNK4llvm5Regex5matchENS_9StringRefEPNS_15SmallVectorImplIS1_EEPNSt7__cxx1112basic_stringIcSt11char_traitsIcESaIcEEE(ptr noundef nonnull align 8 dereferenceable(12) %28, ptr %30, i64 %32, ptr noundef null, ptr noundef null)
  br i1 %33, label %34, label %42

34:                                               ; preds = %24
  %35 = getelementptr inbounds nuw %"class.clang::tooling::IncludeCategoryManager", ptr %16, i32 0, i32 0
  %36 = getelementptr inbounds nuw %"struct.clang::tooling::IncludeStyle", ptr %35, i32 0, i32 2
  %37 = load i32, ptr %9, align 4
  %38 = zext i32 %37 to i64
  %39 = call noundef nonnull align 8 dereferenceable(41) ptr @_ZNKSt6vectorIN5clang7tooling12IncludeStyle15IncludeCategoryESaIS3_EEixEm(ptr noundef nonnull align 8 dereferenceable(24) %36, i64 noundef %38) #5
  %40 = getelementptr inbounds nuw %"struct.clang::tooling::IncludeStyle::IncludeCategory", ptr %39, i32 0, i32 1
  %41 = load i32, ptr %40, align 8
  store i32 %41, ptr %8, align 4
  br label %46

42:                                               ; preds = %24
  br label %43

43:                                               ; preds = %42
  %44 = load i32, ptr %9, align 4
  %45 = add i32 %44, 1
  store i32 %45, ptr %9, align 4
  br label %20, !llvm.loop !4

46:                                               ; preds = %34, %20
  %47 = load i8, ptr %7, align 1
  %48 = trunc i8 %47 to i1
  br i1 %48, label %49, label %63

49:                                               ; preds = %46
  %50 = getelementptr inbounds nuw %"class.clang::tooling::IncludeCategoryManager", ptr %16, i32 0, i32 1
  %51 = load i8, ptr %50, align 8
  %52 = trunc i8 %51 to i1
  br i1 %52, label %53, label %63

53:                                               ; preds = %49
  %54 = load i32, ptr %8, align 4
  %55 = icmp sgt i32 %54, 0
  br i1 %55, label %56, label %63

56:                                               ; preds = %53
  call void @llvm.memcpy.p0.p0.i64(ptr align 8 %12, ptr align 8 %5, i64 16, i1 false)
  %57 = getelementptr inbounds nuw { ptr, i64 }, ptr %12, i32 0, i32 0
  %58 = load ptr, ptr %57, align 8
  %59 = getelementptr inbounds nuw { ptr, i64 }, ptr %12, i32 0, i32 1
  %60 = load i64, ptr %59, align 8
  %61 = call noundef zeroext i1 @_ZNK5clang7tooling22IncludeCategoryManager12isMainHeaderEN4llvm9StringRefE(ptr noundef nonnull align 8 dereferenceable(224) %16, ptr %58, i64 %60)
  br i1 %61, label %62, label %63

62:                                               ; preds = %56
  store i32 0, ptr %8, align 4
  br label %63

63:                                               ; preds = %62, %56, %53, %49, %46
  %64 = load i32, ptr %8, align 4
  ret i32 %64
}