; Function Attrs: mustprogress nounwind uwtable
define dso_local noundef i32 @_ZNK5clang7tooling22IncludeCategoryManager18getIncludePriorityEN4llvm9StringRefEb(ptr noundef nonnull align 8 dereferenceable(224) %0, ptr %1, i64 %2, i1 noundef zeroext %3) local_unnamed_addr #0 align 2 {
  %5 = getelementptr inbounds nuw i8, ptr %0, i64 144
  %6 = tail call noundef i64 @_ZNK4llvm15SmallVectorBaseIjE4sizeEv(ptr noundef nonnull align 8 dereferenceable(16) %5) #19
  %7 = and i64 %6, 4294967295
  %.not14 = icmp eq i64 %7, 0
  br i1 %.not14, label %.loopexit, label %.lr.ph.preheader

.lr.ph.preheader:                                 ; preds = %4
  %8 = and i64 %6, 4294967295
  br label %.lr.ph

9:                                                ; preds = %.lr.ph
  %indvars.iv.next = add nuw nsw i64 %indvars.iv, 1
  %.not = icmp eq i64 %indvars.iv.next, %8
  br i1 %.not, label %.loopexit, label %.lr.ph, !llvm.loop !6

.lr.ph:                                           ; preds = %.lr.ph.preheader, %9
  %indvars.iv = phi i64 [ 0, %.lr.ph.preheader ], [ %indvars.iv.next, %9 ]
  %10 = load ptr, ptr %5, align 8
  %11 = getelementptr inbounds %"class.llvm::Regex", ptr %10, i64 %indvars.iv
  %12 = tail call noundef zeroext i1 @_ZNK4llvm5Regex5matchENS_9StringRefEPNS_15SmallVectorImplIS1_EEPNSt7__cxx1112basic_stringIcSt11char_traitsIcESaIcEEE(ptr noundef nonnull align 8 dereferenceable(12) %11, ptr %1, i64 %2, ptr noundef null, ptr noundef null) #19
  br i1 %12, label %13, label %9

13:                                               ; preds = %.lr.ph
  %14 = getelementptr inbounds nuw i8, ptr %0, i64 8
  %15 = load ptr, ptr %14, align 8
  %16 = getelementptr inbounds %"struct.clang::tooling::IncludeStyle::IncludeCategory", ptr %15, i64 %indvars.iv, i32 1
  %17 = load i32, ptr %16, align 8
  br label %.loopexit

.loopexit:                                        ; preds = %9, %4, %13
  %.0 = phi i32 [ %17, %13 ], [ 2147483647, %4 ], [ 2147483647, %9 ]
  br i1 %3, label %18, label %25

18:                                               ; preds = %.loopexit
  %19 = getelementptr inbounds nuw i8, ptr %0, i64 104
  %20 = load i8, ptr %19, align 8
  %21 = trunc i8 %20 to i1
  %22 = icmp sgt i32 %.0, 0
  %or.cond = select i1 %21, i1 %22, i1 false
  br i1 %or.cond, label %23, label %25

23:                                               ; preds = %18
  %24 = tail call noundef zeroext i1 @_ZNK5clang7tooling22IncludeCategoryManager12isMainHeaderEN4llvm9StringRefE(ptr noundef nonnull align 8 dereferenceable(224) %0, ptr %1, i64 %2)
  %spec.select = select i1 %24, i32 0, i32 %.0
  br label %25

25:                                               ; preds = %23, %18, %.loopexit
  %.1 = phi i32 [ %.0, %18 ], [ %.0, %.loopexit ], [ %spec.select, %23 ]
  ret i32 %.1
}